; Function Attrs: inlinehint nounwind uwtable
define internal fastcc void @strbuf_addch(ptr noundef %0, i32 noundef range(i32 32, 42) %1) unnamed_addr #12 {
  %3 = load i64, ptr %0, align 8, !tbaa !24
  %.not.i = icmp eq i64 %3, 0
  br i1 %.not.i, label %strbuf_avail.exit.thread, label %strbuf_avail.exit

strbuf_avail.exit:                                ; preds = %2
  %4 = getelementptr inbounds nuw i8, ptr %0, i64 8
  %5 = load i64, ptr %4, align 8, !tbaa !4
  %.neg = add i64 %5, 1
  %.not = icmp eq i64 %3, %.neg
  br i1 %.not, label %strbuf_avail.exit.thread, label %6

strbuf_avail.exit.thread:                         ; preds = %2, %strbuf_avail.exit
  tail call void @strbuf_grow(ptr noundef nonnull %0, i64 noundef 1) #20
  %.phi.trans.insert = getelementptr inbounds nuw i8, ptr %0, i64 8
  %.pre = load i64, ptr %.phi.trans.insert, align 8, !tbaa !4
  %.pre7 = add i64 %.pre, 1
  br label %6

6:                                                ; preds = %strbuf_avail.exit.thread, %strbuf_avail.exit
  %.pre-phi = phi i64 [ %.pre7, %strbuf_avail.exit.thread ], [ %.neg, %strbuf_avail.exit ]
  %7 = phi i64 [ %.pre, %strbuf_avail.exit.thread ], [ %5, %strbuf_avail.exit ]
  %8 = trunc nuw nsw i32 %1 to i8
  %9 = getelementptr inbounds nuw i8, ptr %0, i64 16
  %10 = load ptr, ptr %9, align 8, !tbaa !25
  %11 = getelementptr inbounds nuw i8, ptr %0, i64 8
  store i64 %.pre-phi, ptr %11, align 8, !tbaa !4
  %12 = getelementptr inbounds nuw i8, ptr %10, i64 %7
  store i8 %8, ptr %12, align 1, !tbaa !26
  %13 = load ptr, ptr %9, align 8, !tbaa !25
  %14 = load i64, ptr %11, align 8, !tbaa !4
  %15 = getelementptr inbounds nuw i8, ptr %13, i64 %14
  store i8 0, ptr %15, align 1, !tbaa !26
  ret void
}